(dp0
V\u963f\u9c81\u5df4\u535a\u5185\u5c14\u5c9b\u548c\u5e93\u62c9\u7d22\u5c9b
p1
(Vhttp://tukeq.com/place/aruba-bonaire-and-curacao/explore/
p2
(lp3
V       Bonaire
p4
aV       Aruba
p5
aV       Curacao
p6
aV       Bonaire
p7
aV       Aruba
p8
aV       Curacao
p9
atp10
sV\u79d8\u9c81
p11
(Vhttp://tukeq.com/place/peru/explore/
p12
(lp13
V       Lima
p14
aV       Cuzco
p15
aV       Machu Picchu
p16
aV       Puno
p17
aV       Huaraz
p18
aV       Ayacucho
p19
aV       Ica
p20
aV       Cajamarca
p21
aV       Huancayo
p22
aV       Arequipa
p23
aV       Chiclayo
p24
aV       Nazca
p25
aV       Mancora
p26
aV       Iquitos
p27
aV       Trujillo
p28
aV       Lima
p29
aV       Cuzco
p30
aV       Machu Picchu
p31
aV       Puno
p32
aV       Huaraz
p33
aV       Ayacucho
p34
aV       Ica
p35
aV       Cajamarca
p36
aV       Huancayo
p37
aV       Arequipa
p38
aV       Chiclayo
p39
aV       Nazca
p40
aV       Mancora
p41
aV       Iquitos
p42
aV       Trujillo
p43
aV       The Sacred Valley
p44
aV       Central Highlands
p45
aV       Piura
p46
aV       Pucallpa
p47
aV       Cuzco And The Sacred Valley
p48
aV       Chachapoyas
p49
aV       Aguas Calientes
p50
aV       Pisac
p51
aV       Tarapoto
p52
aV       Tumbes
p53
aV       Puerto Maldonado
p54
aV       Tacna
p55
aV       Huanchaco
p56
aV       Pisco
p57
aV       Huanuco
p58
aV       North Coast
p59
aV       Ollantaytambo
p60
aV       Huancavelica
p61
aV       Tingo Maria
p62
aV       Chivay
p63
aV       Tarma
p64
aV       Moquegua
p65
aV       Northern Highlands
p66
aV       Huaraz And The Cordilleras
p67
aV       Urubamba
p68
aV       Lake Titicaca
p69
aV       Arequipa And Canyon Country
p70
aV       Amazon Basin
p71
aV       South Coast
p72
atp73
sV\u5df4\u5df4\u591a\u65af
p74
(Vhttp://tukeq.com/place/barbados/explore/
p75
(lp76
V       Bridgetown
p77
aV       Bridgetown
p78
atp79
sV\u7279\u514b\u65af\u548c\u51ef\u79d1\u65af\u7fa4\u5c9b
p80
(Vhttp://tukeq.com/place/turks-and-caicos/explore/
p81
(lp82
tp83
sV\u4e4c\u62c9\u572d
p84
(Vhttp://tukeq.com/place/uruguay/explore/
p85
(lp86
V       Montevideo
p87
aV       Carmelo
p88
aV       Fray Bentos
p89
aV       Colonia Del Sacramento
p90
aV       Punta Del Diablo
p91
aV       Punta Del Este
p92
aV       La Paloma
p93
aV       Tacuarembo
p94
aV       Paysandu
p95
aV       Piriapolis
p96
aV       Maldonado
p97
aV       Mercedes
p98
aV       Salto
p99
aV       Montevideo
p100
aV       Carmelo
p101
aV       Fray Bentos
p102
aV       Colonia Del Sacramento
p103
aV       Punta Del Diablo
p104
aV       Punta Del Este
p105
aV       La Paloma
p106
aV       Tacuarembo
p107
aV       Paysandu
p108
aV       Piriapolis
p109
aV       Maldonado
p110
aV       Mercedes
p111
aV       Salto
p112
atp113
sV\u7f8e\u5c5e\u7ef4\u4eac\u7fa4\u5c9b
p114
(Vhttp://tukeq.com/place/us-virgin-islands/explore/
p115
(lp116
V       St Thomas
p117
aV       St John
p118
aV       St Thomas
p119
aV       St John
p120
atp121
sV\u6d77\u5730
p122
(Vhttp://tukeq.com/place/haiti/explore/
p123
(lp124
V       Port Au Prince
p125
aV       Jacmel
p126
aV       Cap Haitien
p127
aV       Port Au Prince
p128
aV       Jacmel
p129
aV       Cap Haitien
p130
atp131
sV\u5b89\u63d0\u74dc\u548c\u5df4\u5e03\u8fbe
p132
(Vhttp://tukeq.com/place/antigua-and-barbuda/explore/
p133
(lp134
V       Antigua
p135
aV       Antigua
p136
atp137
sV\u5df4\u897f
p138
(Vhttp://tukeq.com/place/brazil/explore/
p139
(lp140
V       Rio De Janeiro
p141
aV       Manaus
p142
aV       Alter Do Chao
p143
aV       The Pantanal
p144
aV       Florianopolis
p145
aV       Salvador
p146
aV       Caravelas
p147
aV       Porto Alegre
p148
aV       Buzios
p149
aV       Natal
p150
aV       Nova Friburgo
p151
aV       Curitiba
p152
aV       Sao Paulo
p153
aV       Santa Elena De Uairen Venezuela
p154
aV       Cachoeira And Sao Felix
p155
aV       Rio De Janeiro
p156
aV       Manaus
p157
aV       Alter Do Chao
p158
aV       The Pantanal
p159
aV       Florianopolis
p160
aV       Salvador
p161
aV       Caravelas
p162
aV       Porto Alegre
p163
aV       Buzios
p164
aV       Natal
p165
aV       Nova Friburgo
p166
aV       Curitiba
p167
aV       Sao Paulo
p168
aV       Santa Elena De Uairen Venezuela
p169
aV       Cachoeira And Sao Felix
p170
aV       Lencois
p171
aV       Praia Da Pipa
p172
aV       Belo Horizonte
p173
aV       Tabatinga
p174
aV       Fortaleza
p175
aV       Recife
p176
aV       Sao Luis
p177
aV       Foz Do Iguacu
p178
aV       Ilha Grande
p179
aV       Cuiaba
p180
aV       Ouro Preto
p181
aV       Tefe
p182
aV       Boipeba
p183
aV       Feira De Santana
p184
aV       Belem
p185
aV       Ilheus
p186
aV       Guaruja
p187
aV       Barra Grande
p188
aV       Morro De Sao Paulo
p189
aV       Itacare
p190
aV       Cabo Frio
p191
aV       Santa Catarina
p192
aV       Aracaju
p193
aV       Porto Seguro
p194
aV       Algodoal
p195
aV       Penedo
p196
aV       Taquarucu
p197
aV       Maceio
p198
aV       Canela
p199
aV       Oiapoque
p200
aV       Ilha Do Mel
p201
aV       Brasilia
p202
aV       Ilha De Itaparica
p203
aV       Macapa
p204
aV       Boa Vista
p205
aV       Paraty
p206
aV       Arraial Dajuda
p207
aV       Jericoacoara
p208
aV       Valenca
p209
aV       Arraial Do Cabo
p210
aV       Porto Velho
p211
aV       Palmas
p212
aV       Xapuri
p213
aV       Parque Nacional De Itatiaia
p214
aV       Tiradentes
p215
aV       Visconde De Maua
p216
aV       Olinda
p217
aV       Bonito
p218
aV       Campos Do Jordao
p219
aV       Iporanga
p220
aV       Angra Dos Reis
p221
aV       Sao Joao Del Rei
p222
aV       Campo Grande
p223
aV       Presidente Figueiredo
p224
aV       Trancoso
p225
aV       Cananeia
p226
aV       Ilha Do Mosqueiro
p227
aV       Ilhabela
p228
aV       Joao Pessoa
p229
aV       Santarem
p230
aV       Joinville
p231
aV       Ubatuba
p232
aV       Vassouras
p233
aV       Caraiva
p234
aV       Praia Do Forte
p235
aV       Diamantina
p236
aV       Mangue Seco
p237
aV       Sao Sebastiao
p238
aV       Saquarema
p239
aV       Boicucanga And Around
p240
aV       Rio Branco
p241
aV       Ilha De Marajo
p242
aV       Guajara Mirim
p243
aV       Natividade
p244
aV       Ponta Pora
p245
aV       Brasileia
p246
aV       Ilha De Santa Catarina
p247
atp248
sV\u74dc\u5fb7\u7f57\u666e\u5c9b
p249
(Vhttp://tukeq.com/place/guadeloupe/explore/
p250
(lp251
tp252
sV\u8428\u5df4
p253
(Vhttp://tukeq.com/place/saba/explore/
p254
(lp255
tp256
sV\u5b89\u572d\u62c9
p257
(Vhttp://tukeq.com/place/anguilla/explore/
p258
(lp259
tp260
sV\u7279\u91cc\u5c3c\u8fbe\u548c\u591a\u5df4\u54e5
p261
(Vhttp://tukeq.com/place/trinidad-and-tobago/explore/
p262
(lp263
V       Trinidad
p264
aV       Tobago
p265
aV       Trinidad
p266
aV       Tobago
p267
atp268
sV\u6d2a\u90fd\u62c9\u65af
p269
(Vhttp://tukeq.com/place/honduras/explore/
p270
(lp271
V       Utila
p272
aV       Roatan
p273
aV       Santa Rosa De Copan
p274
aV       San Pedro Sula
p275
aV       La Ceiba
p276
aV       Copan Ruinas
p277
aV       Trujillo
p278
aV       Gracias
p279
aV       Tegucigalpa
p280
aV       Comayagua
p281
aV       La Moskitia
p282
aV       Tela
p283
aV       Juticalpa
p284
aV       Valle De Angeles
p285
aV       Siguatepeque
p286
aV       Utila
p287
aV       Roatan
p288
aV       Santa Rosa De Copan
p289
aV       San Pedro Sula
p290
aV       La Ceiba
p291
aV       Copan Ruinas
p292
aV       Trujillo
p293
aV       Gracias
p294
aV       Tegucigalpa
p295
aV       Comayagua
p296
aV       La Moskitia
p297
aV       Tela
p298
aV       Juticalpa
p299
aV       Valle De Angeles
p300
aV       Siguatepeque
p301
aV       San Juan
p302
aV       Choluteca
p303
aV       Puerto Cortes
p304
aV       Marcala
p305
aV       Omoa
p306
aV       La Esperanza
p307
aV       Santa Lucia
p308
aV       Nueva Ocotepeque
p309
atp310
sV\u5384\u74dc\u591a\u5c14
p311
(Vhttp://tukeq.com/place/ecuador/explore/
p312
(lp313
V       Guayaquil
p314
aV       Quito
p315
aV       Cuenca
p316
aV       Vilcabamba
p317
aV       Banos
p318
aV       The Galapagos Islands
p319
aV       Puerto Ayora
p320
aV       Puerto Lopez
p321
aV       Tena
p322
aV       The Southern Highlands
p323
aV       Manta
p324
aV       Loja
p325
aV       Macas
p326
aV       Atacames
p327
aV       Northern Highlands
p328
aV       Guayaquil
p329
aV       Quito
p330
aV       Cuenca
p331
aV       Vilcabamba
p332
aV       Banos
p333
aV       The Galapagos Islands
p334
aV       Puerto Ayora
p335
aV       Puerto Lopez
p336
aV       Tena
p337
aV       The Southern Highlands
p338
aV       Manta
p339
aV       Loja
p340
aV       Macas
p341
aV       Atacames
p342
aV       Northern Highlands
p343
aV       Esmeraldas
p344
aV       Ibarra
p345
aV       Montanita
p346
aV       Machala
p347
aV       Tulcan
p348
aV       Riobamba
p349
aV       Otavalo
p350
aV       Lago Agrio
p351
aV       Guaranda
p352
aV       Latacunga
p353
aV       The Oriente
p354
aV       Puyo
p355
aV       Coca
p356
aV       Ambato
p357
aV       Central Highlands
p358
aV       Misahualli
p359
aV       Bahia De Caraquez
p360
aV       The Quilotoa Loop
p361
aV       Isla Santa Cruz Indefatigable
p362
atp363
sV\u54e5\u4f26\u6bd4\u4e9a
p364
(Vhttp://tukeq.com/place/colombia/explore/
p365
(lp366
V       Bogota
p367
aV       Santa Marta
p368
aV       Medellin
p369
aV       Cucuta
p370
aV       Cartagena
p371
aV       Cali
p372
aV       San Andres
p373
aV       Popayan
p374
aV       Leticia
p375
aV       Villa De Leyva
p376
aV       Tunja
p377
aV       Armenia
p378
aV       San Gil
p379
aV       Pamplona
p380
aV       Bucaramanga
p381
aV       Bogota
p382
aV       Santa Marta
p383
aV       Medellin
p384
aV       Cucuta
p385
aV       Cartagena
p386
aV       Cali
p387
aV       San Andres
p388
aV       Popayan
p389
aV       Leticia
p390
aV       Villa De Leyva
p391
aV       Tunja
p392
aV       Armenia
p393
aV       San Gil
p394
aV       Pamplona
p395
aV       Bucaramanga
p396
aV       Santa Fe De Antioquia
p397
aV       Barichara
p398
aV       San Agustin
p399
aV       Pasto
p400
aV       North of Bogota
p401
aV       Providencia
p402
aV       Zona Cafetera
p403
aV       Caribbean Coast
p404
aV       Tierradentro
p405
aV       Amazon Basin
p406
atp407
sV\u591a\u7c73\u5c3c\u52a0\u5171\u548c\u56fd
p408
(Vhttp://tukeq.com/place/dominican-republic/explore/
p409
(lp410
V       Santo Domingo
p411
aV       Cabarete
p412
aV       Las Galeras
p413
aV       Las Terrenas
p414
aV       Samana
p415
aV       Jarabacoa
p416
aV       The Southeast
p417
aV       Bavaro And Punta Cana
p418
aV       North Coast
p419
aV       Playa Bonita
p420
aV       Santo Domingo
p421
aV       Cabarete
p422
aV       Las Galeras
p423
aV       Las Terrenas
p424
aV       Samana
p425
aV       Jarabacoa
p426
aV       The Southeast
p427
aV       Bavaro And Punta Cana
p428
aV       North Coast
p429
aV       Playa Bonita
p430
atp431
sV\u963f\u6839\u5ef7
p432
(Vhttp://tukeq.com/place/argentina/explore/
p433
(lp434
V       Cordoba
p435
aV       Buenos Aires
p436
aV       Ushuaia
p437
aV       Mendoza
p438
aV       Parque Provincial Aconcagua
p439
aV       Esquel
p440
aV       San Martin De Los Andes
p441
aV       Rosario
p442
aV       Tandil
p443
aV       Los Antiguos
p444
aV       Tucuman
p445
aV       Pinamar
p446
aV       Mar Del Plata
p447
aV       El Bolson
p448
aV       Mina Clavero
p449
aV       Cordoba
p450
aV       Buenos Aires
p451
aV       Ushuaia
p452
aV       Mendoza
p453
aV       Parque Provincial Aconcagua
p454
aV       Esquel
p455
aV       San Martin De Los Andes
p456
aV       Rosario
p457
aV       Tandil
p458
aV       Los Antiguos
p459
aV       Tucuman
p460
aV       Pinamar
p461
aV       Mar Del Plata
p462
aV       El Bolson
p463
aV       Mina Clavero
p464
aV       Villa General Belgrano
p465
aV       El Calafate
p466
aV       Cafayate
p467
aV       Neuquen
p468
aV       Salta
p469
aV       Parque Nacional Perito Moreno
p470
aV       Puerto Madryn
p471
aV       Bariloche
p472
aV       Parque Nacional Tierra Del Fuego
p473
aV       Chilecito
p474
aV       Central Argentina
p475
aV       Junin De Los Andes
p476
aV       Resistencia
p477
aV       Camarones
p478
aV       Cachi
p479
aV       Alta Gracia
p480
aV       San Juan
p481
aV       Sierra De La Ventana
p482
aV       Puerto Iguazu
p483
aV       San Rafael
p484
aV       Parque Nacional Los Alerces
p485
aV       Necochea
p486
aV       San Luis
p487
aV       Mar Chiquita
p488
aV       San Antonio De Areco
p489
aV       Trevelin
p490
aV       Villa Gesell
p491
aV       Santa Fe
p492
aV       Posadas
p493
aV       Parana
p494
aV       Humahuaca
p495
aV       La Rioja
p496
aV       Tigre And The Delta
p497
aV       Colon
p498
aV       Puerto San Julian
p499
aV       Parque Nacional El Palmar
p500
aV       Santiago Del Estero
p501
aV       Comodoro Rivadavia
p502
aV       La Plata
p503
aV       Alumine
p504
aV       Parque Nacional Chaco
p505
aV       Parque Nacional Los Glaciares South
p506
aV       Jujuy
p507
aV       Catamarca
p508
aV       Villa La Angostura
p509
aV       Caleta Olivia
p510
aV       Iruya
p511
aV       Barreal
p512
aV       Santa Rosa
p513
aV       Bahia Blanca
p514
aV       Gaiman
p515
aV       Puerto Deseado
p516
aV       Rio Gallegos
p517
aV       Gualeguaychu
p518
aV       Uspallata
p519
aV       Mercedes
p520
aV       La Cumbre
p521
aV       Corrientes
p522
aV       La Cumbrecita
p523
aV       Tafi Del Valle
p524
aV       Carmen De Patagones
p525
aV       Trelew
p526
aV       Caviahue
p527
aV       El Chalten
p528
aV       Reserva Provincial Esteros Del Ibera
p529
aV       Paso De Los Libres
p530
aV       Merlo
p531
aV       Carolina
p532
aV       San Clemente Del Tuyu
p533
aV       Cosquin
p534
aV       Quilmes
p535
aV       Purmamarca
p536
aV       Villa Pehuenia
p537
aV       Viedma
p538
aV       San Isidro
p539
aV       La Quiaca
p540
aV       Villa Traful
p541
aV       Patagonia
p542
aV       Parque Provincial Ischigualasto
p543
aV       Concepcion
p544
aV       Parque Nacional Lihue Calel
p545
aV       Belen
p546
aV       Villa Ventana
p547
aV       Termas De Rio Hondo
p548
aV       Laguna Blanca
p549
aV       Tilcara
p550
aV       Rio Grande
p551
aV       Zapala
p552
aV       La Falda
p553
aV       Parque Nacional Calilegua
p554
aV       San Antonio De Los Cobres
p555
aV       Concordia
p556
aV       Parque Nacional Rio Pilcomayo
p557
aV       Chos Malal
p558
aV       Roque Saenz Pena
p559
aV       Paso De La Patria
p560
aV       Formosa
p561
aV       Northwest Argentina
p562
aV       Perito Moreno
p563
aV       San Ignacio Mini
p564
aV       The Lake District
p565
aV       Parque Nacional Iguazu
p566
aV       Parque Nacional Mburucuya
p567
aV       Northeast Argentina
p568
aV       Tolhuin And Lago Fagnano
p569
aV       Tierra Del Fuego
p570
aV       Yapeyu
p571
aV       Atlantic Coast
p572
aV       Quebrada De Humahuaca
p573
aV       Parque Nacional Talampaya
p574
aV       Reserva Natural Otamendi
p575
atp576
sV\u54e5\u65af\u8fbe\u9ece\u52a0
p577
(Vhttp://tukeq.com/place/costa-rica/explore/
p578
(lp579
V       San Jose
p580
aV       Alajuela
p581
aV       Montezuma
p582
aV       Cahuita
p583
aV       Puerto Jimenez
p584
aV       Puerto Viejo De Talamanca
p585
aV       Refugio Nacional De Vida Silvestre Cano Negro
p586
aV       Tortuguero Village
p587
aV       Jaco
p588
aV       Los Chiles
p589
aV       Siquirres
p590
aV       San Rafael De Guatuso Area
p591
aV       Santa Maria And Valle De Dota
p592
aV       La Virgen
p593
aV       Parque Nacional Chirripo
p594
aV       San Jose
p595
aV       Alajuela
p596
aV       Montezuma
p597
aV       Cahuita
p598
aV       Puerto Jimenez
p599
aV       Puerto Viejo De Talamanca
p600
aV       Refugio Nacional De Vida Silvestre Cano Negro
p601
aV       Tortuguero Village
p602
aV       Jaco
p603
aV       Los Chiles
p604
aV       Siquirres
p605
aV       San Rafael De Guatuso Area
p606
aV       Santa Maria And Valle De Dota
p607
aV       La Virgen
p608
aV       Parque Nacional Chirripo
p609
aV       Reserva Indigena Boruca
p610
aV       San Isidro De El General
p611
aV       San Gerardo De Rivas
p612
aV       Parque Internacional La Amistad
p613
aV       Canas
p614
aV       San Vito
p615
aV       Paso Canoas
p616
aV       Palmar
p617
aV       Cartago
p618
aV       Heredia
p619
aV       Parque Nacional Carara
p620
aV       Reserva Santa Elena
p621
aV       Valle De Orosi
p622
aV       Puerto Viejo De Sarapiqui And Around
p623
aV       Parismina
p624
aV       Guapiles And Around
p625
aV       South of Puerto Viejo De Sarapiqui
p626
aV       Quepos To Dominical
p627
aV       Monteverde And Santa Elena
p628
aV       Puerto Limon
p629
aV       Upala
p630
aV       Tilaran
p631
aV       Uvita
p632
aV       Juntas
p633
aV       Puntarenas
p634
aV       The Atlantic Slope
p635
aV       Parque Nacional Volcan Poas
p636
aV       Zarcero
p637
aV       Manuel Antonio
p638
aV       Reserva Biologica Hitoy Cerere
p639
aV       Quepos And Manuel Antonio
p640
aV       Reserva Biologica Bosque Nuboso Monteverde
p641
aV       Central Valley And Highlands
p642
aV       San Ramon
p643
aV       Sierpe
p644
aV       La Garita
p645
aV       Grecia
p646
aV       Escazu
p647
aV       Bahia Drake
p648
aV       Playa Tamarindo
p649
aV       Moin
p650
aV       Los Yoses And San Pedro
p651
aV       Playa Del Coco
p652
aV       Playa Samara
p653
aV       La Fortuna And Around
p654
aV       Playa Brasilito
p655
aV       Mal Pais And Santa Teresa
p656
aV       Liberia
p657
aV       Northwestern Costa Rica
p658
aV       Parque Nacional Palo Verde
p659
aV       Parque Nacional Corcovado
p660
aV       Golfito
p661
aV       Islita Area
p662
aV       Nosara Area
p663
aV       Playa Carrillo
p664
aV       Refugio Nacional De Fauna Silvestre Ostional
p665
aV       Paquera
p666
aV       Estacion Biologica La Selva
p667
aV       Reserva Natural Absoluta Cabo Blanco
p668
aV       Orosi
p669
aV       Turrialba
p670
aV       Playas San Miguel And Coyote
p671
aV       Interamericana Norte
p672
aV       Sarchi
p673
aV       Playa Junquillal
p674
aV       Nicoya
p675
aV       Bribri
p676
aV       Sixaola
p677
aV       Southern Caribbean
p678
aV       Santa Cruz
p679
aV       Bahia Potrero
p680
aV       Bahia Salinas
p681
aV       Manzanillo
p682
aV       Playa Flamingo
p683
aV       Northern Peninsula
p684
aV       Beaches South of Playa Ocotal
p685
aV       Neily
p686
aV       Quepos
p687
aV       Barva
p688
aV       San Gerardo De Dota
p689
aV       Parque Nacional Volcan Irazu
p690
aV       Parque Nacional Tapanti Macizo Cerro De La Muerte
p691
aV       Central Pacific Coast
p692
aV       Parque Nacional Rincon De La Vieja
p693
atp694
sV\u5371\u5730\u9a6c\u62c9
p695
(Vhttp://tukeq.com/place/guatemala/explore/
p696
(lp697
V       Antigua
p698
aV       Guatemala City
p699
aV       Quetzaltenango Xela
p700
aV       Coban
p701
aV       San Pedro La Laguna
p702
aV       Livingston
p703
aV       Chichicastenango
p704
aV       Huehuetenango
p705
aV       Retalhuleu
p706
aV       Puerto Barrios
p707
aV       Chiquimula
p708
aV       Monterrico
p709
aV       Antigua
p710
aV       Guatemala City
p711
aV       Quetzaltenango Xela
p712
aV       Coban
p713
aV       San Pedro La Laguna
p714
aV       Livingston
p715
aV       Chichicastenango
p716
aV       Huehuetenango
p717
aV       Retalhuleu
p718
aV       Puerto Barrios
p719
aV       Chiquimula
p720
aV       Monterrico
p721
atp722
sV\u667a\u5229
p723
(Vhttp://tukeq.com/place/chile/explore/
p724
(lp725
V       Valdivia
p726
aV       La Serena
p727
aV       Punta Arenas
p728
aV       Ancud
p729
aV       Concepcion
p730
aV       Puerto Varas
p731
aV       Santiago
p732
aV       Vina Del Mar
p733
aV       Puerto Natales
p734
aV       Iquique
p735
aV       Castro
p736
aV       Copiapo
p737
aV       Valparaiso
p738
aV       Arica
p739
aV       San Pedro De Atacama
p740
aV       Valdivia
p741
aV       La Serena
p742
aV       Punta Arenas
p743
aV       Ancud
p744
aV       Concepcion
p745
aV       Puerto Varas
p746
aV       Santiago
p747
aV       Vina Del Mar
p748
aV       Puerto Natales
p749
aV       Iquique
p750
aV       Castro
p751
aV       Copiapo
p752
aV       Valparaiso
p753
aV       Arica
p754
aV       San Pedro De Atacama
p755
aV       Pucon
p756
aV       San Juan Bautista
p757
aV       Temuco
p758
aV       Talca
p759
aV       Antofagasta
p760
aV       Villarrica
p761
aV       Coyhaique
p762
aV       Calama
p763
aV       Middle Chile
p764
aV       Osorno
p765
aV       Vicuna
p766
aV       Northern Chile
p767
aV       Chillan
p768
aV       Ovalle
p769
aV       Chaiten And Parque Pumalin
p770
aV       Futaleufu
p771
aV       Puerto Montt
p772
aV       Lago Panguipulli
p773
aV       Santa Cruz
p774
aV       Parque Nacional Chiloe
p775
aV       Parque Nacional Torres Del Paine
p776
aV       Parque Nacional Lauca
p777
aV       Southern Patagonia
p778
aV       Parque Nacional Conguillio
p779
aV       Chiloe
p780
aV       The Lakes District
p781
aV       Northern Patagonia
p782
atp783
sV\u5df4\u62ff\u9a6c
p784
(Vhttp://tukeq.com/place/panama/explore/
p785
(lp786
V       Boquete
p787
aV       Panama City
p788
aV       El Valle
p789
aV       Bocas Del Toro
p790
aV       Portobelo
p791
aV       Colon
p792
aV       Santa Catalina
p793
aV       David
p794
aV       Chitre
p795
aV       La Palma
p796
aV       Boquete
p797
aV       Panama City
p798
aV       El Valle
p799
aV       Bocas Del Toro
p800
aV       Portobelo
p801
aV       Colon
p802
aV       Santa Catalina
p803
aV       David
p804
aV       Chitre
p805
aV       La Palma
p806
atp807
sV\u5c3c\u52a0\u62c9\u74dc
p808
(Vhttp://tukeq.com/place/nicaragua/explore/
p809
(lp810
V       Esteli
p811
aV       San Juan Del Sur
p812
aV       Masaya
p813
aV       Granada
p814
aV       Managua
p815
aV       Matagalpa
p816
aV       Leon
p817
aV       Bluefields
p818
aV       Corn Islands
p819
aV       Isla De Ometepe
p820
aV       Esteli
p821
aV       San Juan Del Sur
p822
aV       Masaya
p823
aV       Granada
p824
aV       Managua
p825
aV       Matagalpa
p826
aV       Leon
p827
aV       Bluefields
p828
aV       Corn Islands
p829
aV       Isla De Ometepe
p830
atp831
sV\u82f1\u5c5e\u7ef4\u4eac\u7fa4\u5c9b
p832
(Vhttp://tukeq.com/place/british-virgin-islands/explore/
p833
(lp834
V       Tortola
p835
aV       Tortola
p836
atp837
sV\u5723\u57fa\u8328\u548c\u5c3c\u7ef4\u65af
p838
(Vhttp://tukeq.com/place/st-kitts-and-nevis/explore/
p839
(lp840
V       Basseterre
p841
aV       Charlestown
p842
aV       Basseterre
p843
aV       Charlestown
p844
atp845
sV\u8499\u7279\u585e\u62c9\u7279
p846
(Vhttp://tukeq.com/place/montserrat/explore/
p847
(lp848
tp849
sV\u5df4\u62c9\u572d
p850
(Vhttp://tukeq.com/place/paraguay/explore/
p851
(lp852
V       Encarnacion
p853
aV       Asuncion
p854
aV       Ciudad Del Este
p855
aV       Concepcion
p856
aV       Encarnacion
p857
aV       Asuncion
p858
aV       Ciudad Del Este
p859
aV       Concepcion
p860
atp861
sV\u59d4\u5185\u745e\u62c9
p862
(Vhttp://tukeq.com/place/venezuela/explore/
p863
(lp864
V       Caracas
p865
aV       Caracas
p866
atp867
sV\u5df4\u54c8\u9a6c
p868
(Vhttp://tukeq.com/place/the-bahamas/explore/
p869
(lp870
V       \u62ff\u9a9a
p871
aV       Grand Bahama
p872
aV       \u62ff\u9a9a
p873
aV       Grand Bahama
p874
atp875
sV\u5723\u9732\u897f\u4e9a
p876
(Vhttp://tukeq.com/place/st-lucia/explore/
p877
(lp878
V       Castries
p879
aV       Castries
p880
atp881
sV\u7f8e\u56fd
p882
(Vhttp://tukeq.com/place/usa/explore/
p883
(lp884
V       \u7ebd\u7ea6
p885
aV       \u534e\u76db\u987f
p886
aV       \u65e7\u91d1\u5c71
p887
aV       \u6ce2\u58eb\u987f
p888
aV       \u6d1b\u6749\u77f6
p889
aV       \u62c9\u65af\u7ef4\u52a0\u65af
p890
aV       \u590f\u5a01\u5937
p891
aV       \u897f\u96c5\u56fe
p892
aV       Minneapolis
p893
aV       San Antonio
p894
aV       Grand Teton National Park
p895
aV       Yosemite National Park
p896
aV       San Diego
p897
aV       Anchorage
p898
aV       Talkeetna
p899
aV       \u7ebd\u7ea6
p900
aV       \u534e\u76db\u987f
p901
aV       \u65e7\u91d1\u5c71
p902
aV       \u6ce2\u58eb\u987f
p903
aV       \u6d1b\u6749\u77f6
p904
aV       \u62c9\u65af\u7ef4\u52a0\u65af
p905
aV       \u590f\u5a01\u5937
p906
aV       \u897f\u96c5\u56fe
p907
aV       Minneapolis
p908
aV       San Antonio
p909
aV       Grand Teton National Park
p910
aV       Yosemite National Park
p911
aV       San Diego
p912
aV       Anchorage
p913
aV       Talkeetna
p914
aV       Michigan
p915
aV       Zion National Park
p916
aV       Niagara Falls
p917
aV       New Jersey
p918
aV       \u9ec4\u77f3\u56fd\u5bb6\u516c\u56ed
p919
aV       Seward
p920
aV       Santa Barbara
p921
aV       Orlando
p922
aV       Denver
p923
aV       Honolulu And Waikiki
p924
aV       Oakland
p925
aV       Utah
p926
aV       Cleveland
p927
aV       Denali National Park
p928
aV       Death Valley National Park
p929
aV       Palo Alto
p930
aV       Santa Fe
p931
aV       Everglades National Park
p932
aV       Kansas City
p933
aV       St Louis
p934
aV       Chicago
p935
aV       Ohio
p936
aV       Philadelphia
p937
aV       Portland
p938
aV       Texas
p939
aV       Kodiak
p940
aV       Long Island
p941
aV       Atlantic City
p942
aV       Key West
p943
aV       Boulder
p944
aV       Kauai
p945
aV       Sitka
p946
aV       Maui
p947
aV       Charleston
p948
aV       Bryce Canyon National Park
p949
aV       Tampa
p950
aV       Juneau
p951
aV       Eugene
p952
aV       Delaware
p953
aV       Austin
p954
aV       North Carolina
p955
aV       Houston
p956
aV       West Palm Beach
p957
aV       Miami
p958
aV       Savannah
p959
aV       Berkeley
p960
aV       Daytona Beach
p961
aV       Wisconsin
p962
aV       Durango
p963
aV       Nashville
p964
aV       Fort Lauderdale
p965
aV       Detroit
p966
aV       New York State
p967
aV       Atlanta
p968
aV       Taos
p969
aV       Massachusetts
p970
aV       Walt Disney World
p971
aV       Albuquerque
p972
aV       Reno
p973
aV       Mt Rainier National Park
p974
aV       Lake Tahoe
p975
aV       Park City
p976
aV       Nantucket
p977
aV       Southwest
p978
aV       Placerville
p979
aV       Sarasota
p980
aV       Catalina Island
p981
aV       Fort Worth
p982
aV       Dalton Highway
p983
aV       Rocky Mountain National Park
p984
aV       California
p985
aV       Tenakee Springs
p986
aV       Montpelier And Barre
p987
aV       Moab
p988
aV       Camden And Rockport
p989
aV       Truckee And Donner Lake
p990
aV       Florida
p991
aV       Rockport
p992
aV       Nevada
p993
aV       Mojave Desert
p994
aV       Illinois
p995
aV       Colorado Springs
p996
aV       Flagstaff
p997
aV       Colorado
p998
aV       Arizona
p999
aV       Gloucester
p1000
aV       Provincetown
p1001
aV       St Augustine
p1002
aV       Baltimore
p1003
aV       Grass Valley
p1004
aV       Jacksonville
p1005
aV       Burlington
p1006
aV       Haines
p1007
aV       Pensacola
p1008
aV       Lenox
p1009
aV       Phoenix
p1010
aV       Palmer
p1011
aV       Tucson
p1012
aV       Wood Tikchik State Park
p1013
aV       Central Valley
p1014
aV       Connecticut
p1015
aV       Brattleboro
p1016
aV       Salem
p1017
aV       Lafayette
p1018
aV       Missoula
p1019
aV       Mill Valley
p1020
aV       Tallahassee
p1021
aV       Monterey
p1022
aV       Marin County
p1023
aV       Keene
p1024
aV       Plymouth
p1025
aV       Salt Lake City
p1026
aV       Sedona
p1027
aV       Alaska
p1028
aV       Lexington
p1029
aV       Cincinnati
p1030
aV       Missouri
p1031
aV       Portsmouth
p1032
aV       Providence
p1033
aV       Virginia
p1034
aV       Hartford
p1035
aV       Whittier
p1036
aV       Peterborough And Around
p1037
aV       Concord
p1038
aV       Dallas
p1039
aV       St Petersburg
p1040
aV       Clear Lake
p1041
aV       Davis
p1042
aV       Worcester
p1043
aV       Gainesville
p1044
aV       Petersburg
p1045
aV       St Paul
p1046
aV       Merced
p1047
aV       Chico
p1048
aV       Fredericksburg
p1049
aV       Kotzebue
p1050
aV       South Rim
p1051
aV       New Haven
p1052
aV       Redding
p1053
aV       Skagway
p1054
aV       West Texas
p1055
aV       Newport
p1056
aV       Chattanooga
p1057
aV       Nevada City
p1058
aV       Steese Highway
p1059
aV       El Paso
p1060
aV       Tampa Bay
p1061
aV       Minnesota
p1062
aV       Cordova
p1063
aV       Panama City Beach
p1064
aV       Jaffrey Center
p1065
aV       Baton Rouge
p1066
aV       Buffalo
p1067
aV       Barrow
p1068
aV       Washington
p1069
aV       Indiana
p1070
aV       Weaverville
p1071
aV       West Virginia
p1072
aV       Laguna Beach
p1073
aV       Maryland
p1074
aV       Newburyport
p1075
aV       Girdwood
p1076
aV       Oklahoma City
p1077
aV       Newport Beach
p1078
aV       Santa Cruz
p1079
aV       The Kennebunks
p1080
aV       Cape Cod
p1081
aV       Kenai Fjords National Park
p1082
aV       King Salmon
p1083
aV       Franconia Town And Around
p1084
aV       Athens
p1085
aV       Louisville
p1086
aV       Acadia National Park
p1087
aV       Charlotte
p1088
aV       Manchester
p1089
aV       Woodstock And Quechee Village
p1090
aV       Oahu
p1091
aV       San Luis Obispo
p1092
aV       Litchfield
p1093
aV       Hot Springs
p1094
aV       Disneyland And Anaheim
p1095
aV       Pennsylvania
p1096
aV       Louisiana
p1097
aV       South Dakota
p1098
aV       Albany
p1099
aV       Monhegan Island
p1100
aV       Palm Beach
p1101
aV       Fort Myers
p1102
aV       Montana
p1103
aV       Indianapolis
p1104
aV       Myrtle Beach
p1105
aV       Half Moon Bay
p1106
aV       Grand Canyon National Park
p1107
aV       Fairbanks
p1108
aV       Asheville
p1109
aV       Boca Raton
p1110
aV       Sacramento
p1111
aV       North Dakota
p1112
aV       San Juan Capistrano
p1113
aV       Soldotna
p1114
aV       Hawaii The Big Island
p1115
aV       Georgia
p1116
aV       Sonora
p1117
aV       Oxford
p1118
aV       Fort Bragg
p1119
aV       Vail
p1120
aV       Carmel By The Sea
p1121
aV       Nebraska
p1122
aV       Red Bluff
p1123
aV       Shenandoah National Park
p1124
aV       Big Bear Lake
p1125
aV       New Mexico
p1126
aV       Point Reyes National Seashore
p1127
aV       Augusta And Around
p1128
aV       Des Moines
p1129
aV       Kentucky
p1130
aV       Hope
p1131
aV       Stowe
p1132
aV       Hanover
p1133
aV       Northampton
p1134
aV       Visalia
p1135
aV       Bozeman
p1136
aV       Arkansas
p1137
aV       Sausalito
p1138
aV       Lassen Volcanic National Park
p1139
aV       Connecticut Coast
p1140
aV       Duluth
p1141
aV       Salinas
p1142
aV       Iowa
p1143
aV       Bolinas
p1144
aV       Marblehead
p1145
aV       Nome
p1146
aV       Williamstown
p1147
aV       Bakersfield
p1148
aV       Crescent City
p1149
aV       North Woodstock And Lincoln
p1150
aV       Wasilla
p1151
aV       Tok
p1152
aV       Yreka
p1153
aV       Birmingham
p1154
aV       Mackinac Island
p1155
aV       Lowell
p1156
aV       Wrangell St Elias National Park
p1157
aV       Naples
p1158
aV       Big Sur
p1159
aV       Arcata
p1160
aV       Telluride
p1161
aV       Boothbay Harbor
p1162
aV       Unalaska And Dutch Harbor
p1163
aV       Harpers Ferry
p1164
aV       Northeast Kingdom
p1165
aV       Annapolis
p1166
aV       The Everglades
p1167
aV       Ketchikan
p1168
aV       Oklahoma
p1169
aV       Central Mountain Region
p1170
aV       Castine
p1171
aV       Oroville
p1172
aV       Tiburon
p1173
aV       Black Hills
p1174
aV       Space Coast
p1175
aV       Jackson And Around
p1176
aV       Fresno
p1177
aV       San Rafael
p1178
aV       Bar Harbor
p1179
aV       Pelican
p1180
aV       New London
p1181
aV       Springfield
p1182
aV       Maine
p1183
aV       Joshua Tree National Park
p1184
atp1185
sV\u4f2f\u5229\u5179
p1186
(Vhttp://tukeq.com/place/belize/explore/
p1187
(lp1188
V       Caye Caulker
p1189
aV       San Ignacio Cayo
p1190
aV       Belize City
p1191
aV       Dangriga
p1192
aV       Placencia
p1193
aV       Punta Gorda
p1194
aV       Belmopan
p1195
aV       Southern Belize
p1196
aV       Caye Caulker
p1197
aV       San Ignacio Cayo
p1198
aV       Belize City
p1199
aV       Dangriga
p1200
aV       Placencia
p1201
aV       Punta Gorda
p1202
aV       Belmopan
p1203
aV       Southern Belize
p1204
atp1205
sV\u52a0\u62ff\u5927
p1206
(Vhttp://tukeq.com/place/canada/explore/
p1207
(lp1208
V       \u6e29\u54e5\u534e
p1209
aV       \u8499\u7279\u5229\u5c14
p1210
aV       \u591a\u4f26\u591a
p1211
aV       \u6e25\u592a\u534e
p1212
aV       Halifax
p1213
aV       Kingston
p1214
aV       Victoria
p1215
aV       Quebec City
p1216
aV       Thunder Bay
p1217
aV       Banff Town
p1218
aV       Whitehorse
p1219
aV       Whistler
p1220
aV       Nanaimo
p1221
aV       Regina
p1222
aV       Salt Spring Island
p1223
aV       \u6e29\u54e5\u534e
p1224
aV       \u8499\u7279\u5229\u5c14
p1225
aV       \u591a\u4f26\u591a
p1226
aV       \u6e25\u592a\u534e
p1227
aV       Halifax
p1228
aV       Kingston
p1229
aV       Victoria
p1230
aV       Quebec City
p1231
aV       Thunder Bay
p1232
aV       Banff Town
p1233
aV       Whitehorse
p1234
aV       Whistler
p1235
aV       Nanaimo
p1236
aV       Regina
p1237
aV       Salt Spring Island
p1238
aV       Parry Sound
p1239
aV       Sydney
p1240
aV       Nelson
p1241
aV       Kelowna
p1242
aV       Niagara Falls
p1243
aV       Jasper Town And Around
p1244
aV       St Jacobs And Around
p1245
aV       Penticton
p1246
aV       Prince Rupert
p1247
aV       Moncton
p1248
aV       Squamish And Around
p1249
aV       London
p1250
aV       Niagara On The Lake
p1251
aV       Dawson City
p1252
aV       Inuvik
p1253
aV       Ontario
p1254
aV       Revelstoke
p1255
aV       Calgary
p1256
aV       Guelph
p1257
aV       Lunenburg
p1258
aV       Winnipeg
p1259
aV       British Columbia
p1260
aV       Stratford
p1261
aV       Quebec
p1262
aV       Galiano Island
p1263
aV       Prince George
p1264
aV       Hamilton
p1265
aV       Gatineau Hull
p1266
aV       Pelee Island
p1267
aV       Bracebridge
p1268
aV       St Stephen
p1269
aV       Orillia
p1270
aV       Kamloops
p1271
aV       Southampton And Around
p1272
aV       Windsor
p1273
aV       Saskatoon
p1274
aV       Yellowknife
p1275
aV       Niagara Peninsula Wine Country
p1276
aV       Sault Ste Marie
p1277
aV       Charlottetown
p1278
aV       St Johns
p1279
aV       Fredericton
p1280
aV       Owen Sound
p1281
aV       Edmonton
p1282
aV       Corner Brook
p1283
aV       North Bay
p1284
aV       Sudbury
p1285
aV       Midland
p1286
aV       Manitoulin Island
p1287
aV       Cochrane
p1288
aV       Trois Rivieres
p1289
aV       Churchill
p1290
aV       Waterton Lakes National Park
p1291
aV       Collingwood And Blue Mountain
p1292
aV       Cornwall
p1293
aV       Brantford And Around
p1294
aV       Wawa
p1295
aV       Moose Factory And Moosonee
p1296
atp1297
sV\u53e4\u5df4
p1298
(Vhttp://tukeq.com/place/cuba/explore/
p1299
(lp1300
V       Varadero
p1301
aV       Las Tunas
p1302
aV       Cienfuegos
p1303
aV       Matanzas
p1304
aV       Santa Clara
p1305
aV       Baracoa
p1306
aV       Vinales
p1307
aV       Santiago De Cuba
p1308
aV       Bayamo
p1309
aV       Trinidad
p1310
aV       Nueva Gerona
p1311
aV       Sancti Spiritus
p1312
aV       Pinar Del Rio
p1313
aV       Playas Del Este
p1314
aV       Ciego De Avila
p1315
aV       Varadero
p1316
aV       Las Tunas
p1317
aV       Cienfuegos
p1318
aV       Matanzas
p1319
aV       Santa Clara
p1320
aV       Baracoa
p1321
aV       Vinales
p1322
aV       Santiago De Cuba
p1323
aV       Bayamo
p1324
aV       Trinidad
p1325
aV       Nueva Gerona
p1326
aV       Sancti Spiritus
p1327
aV       Pinar Del Rio
p1328
aV       Playas Del Este
p1329
aV       Ciego De Avila
p1330
aV       Remedios
p1331
aV       Pinar Del Rio Province
p1332
aV       Havana
p1333
atp1334
sV\u9a6c\u63d0\u5c3c\u514b
p1335
(Vhttp://tukeq.com/place/martinique/explore/
p1336
(lp1337
tp1338
sV\u767e\u6155\u5927
p1339
(Vhttp://tukeq.com/place/bermuda/explore/
p1340
(lp1341
tp1342
sV\u73bb\u5229\u7ef4\u4e9a
p1343
(Vhttp://tukeq.com/place/bolivia/explore/
p1344
(lp1345
V       La Paz
p1346
aV       Uyuni
p1347
aV       Sucre
p1348
aV       Potosi
p1349
aV       Cochabamba
p1350
aV       Rurrenabaque
p1351
aV       Santa Cruz
p1352
aV       Copacabana
p1353
aV       Tarija
p1354
aV       Guayaramerin
p1355
aV       Samaipata
p1356
aV       Oruro
p1357
aV       Chulumani
p1358
aV       Sorata
p1359
aV       Riberalta
p1360
aV       La Paz
p1361
aV       Uyuni
p1362
aV       Sucre
p1363
aV       Potosi
p1364
aV       Cochabamba
p1365
aV       Rurrenabaque
p1366
aV       Santa Cruz
p1367
aV       Copacabana
p1368
aV       Tarija
p1369
aV       Guayaramerin
p1370
aV       Samaipata
p1371
aV       Oruro
p1372
aV       Chulumani
p1373
aV       Sorata
p1374
aV       Riberalta
p1375
aV       Trinidad
p1376
aV       Coroico
p1377
aV       Tupiza
p1378
atp1379
sV\u7259\u4e70\u52a0
p1380
(Vhttp://tukeq.com/place/jamaica/explore/
p1381
(lp1382
V       Ocho Rios
p1383
aV       Port Antonio
p1384
aV       Kingston
p1385
aV       Montego Bay
p1386
aV       Negril
p1387
aV       Mandeville
p1388
aV       Runaway Bay
p1389
aV       Savanna La Mar
p1390
aV       May Pen
p1391
aV       Ironshore
p1392
aV       Blue Mountains
p1393
aV       Mayfield Falls
p1394
aV       Treasure Beach
p1395
aV       Martha Brae
p1396
aV       Port Royal
p1397
aV       Ocho Rios
p1398
aV       Port Antonio
p1399
aV       Kingston
p1400
aV       Montego Bay
p1401
aV       Negril
p1402
aV       Mandeville
p1403
aV       Runaway Bay
p1404
aV       Savanna La Mar
p1405
aV       May Pen
p1406
aV       Ironshore
p1407
aV       Blue Mountains
p1408
aV       Mayfield Falls
p1409
aV       Treasure Beach
p1410
aV       Martha Brae
p1411
aV       Port Royal
p1412
aV       Port Antonio To Fairy Hill
p1413
aV       Morant Bay
p1414
aV       Spanish Town
p1415
aV       Black River
p1416
aV       Portmore
p1417
aV       Reggae Beach To Boscobel Beach
p1418
aV       Oracabessa
p1419
aV       Discovery Bay
p1420
aV       Accompong
p1421
aV       Maggotty
p1422
aV       Lucea
p1423
aV       Mile Gully And Around
p1424
aV       Rose Hall To Greenwood
p1425
aV       Roaring River And Blue Hole
p1426
aV       Long Bay
p1427
aV       Christiana
p1428
aV       Glistening Waters
p1429
aV       Mavis Bank
p1430
atp1431
sV\u591a\u7c73\u5c3c\u514b
p1432
(Vhttp://tukeq.com/place/dominica/explore/
p1433
(lp1434
V       Roseau
p1435
aV       Roseau
p1436
atp1437
sV\u5f00\u66fc\u7fa4\u5c9b
p1438
(Vhttp://tukeq.com/place/cayman-islands/explore/
p1439
(lp1440
V       Grand Cayman
p1441
aV       Grand Cayman
p1442
atp1443
sV\u683c\u6797\u7eb3\u8fbe
p1444
(Vhttp://tukeq.com/place/grenada/explore/
p1445
(lp1446
V       St Georges
p1447
aV       St Georges
p1448
atp1449
sV\u6ce2\u591a\u9ece\u5404
p1450
(Vhttp://tukeq.com/place/puerto-rico/explore/
p1451
(lp1452
V       San Juan
p1453
aV       Vieques
p1454
aV       Culebra
p1455
aV       Naguabo And Around
p1456
aV       Rincon
p1457
aV       Dorado
p1458
aV       Aguadilla
p1459
aV       Isla Mona
p1460
aV       Ponce
p1461
aV       Bosque Estatal De Carite
p1462
aV       Fajardo And Around
p1463
aV       Guayama
p1464
aV       La Parguera
p1465
aV       Pinones
p1466
aV       Boqueron
p1467
aV       San Juan
p1468
aV       Vieques
p1469
aV       Culebra
p1470
aV       Naguabo And Around
p1471
aV       Rincon
p1472
aV       Dorado
p1473
aV       Aguadilla
p1474
aV       Isla Mona
p1475
aV       Ponce
p1476
aV       Bosque Estatal De Carite
p1477
aV       Fajardo And Around
p1478
aV       Guayama
p1479
aV       La Parguera
p1480
aV       Pinones
p1481
aV       Boqueron
p1482
aV       Cabo Rojo
p1483
aV       Guanica And Around
p1484
aV       Luquillo And Around
p1485
aV       Arroyo
p1486
aV       Barranquitas
p1487
aV       Isabela And Around
p1488
aV       Mayaguez
p1489
aV       Playa De Joyuda
p1490
aV       El Yunque
p1491
aV       Arecibo And Around
p1492
aV       San German
p1493
aV       Playa Salinas
p1494
aV       Yabucoa And Around
p1495
aV       Manati And Around
p1496
aV       El Combate
p1497
aV       Bosque Estatal De Guajataca
p1498
aV       Aibonito And Around
p1499
aV       Maricao
p1500
aV       Bahia De Jobos
p1501
atp1502
sV\u572d\u4e9a\u90a3
p1503
(Vhttp://tukeq.com/place/the-guianas/explore/
p1504
(lp1505
V       Georgetown
p1506
aV       Paramaribo
p1507
aV       Suriname
p1508
aV       Cayenne
p1509
aV       St Laurent Du Maroni
p1510
aV       Guyana
p1511
aV       French Guiana
p1512
aV       Kourou
p1513
aV       Georgetown
p1514
aV       Paramaribo
p1515
aV       Suriname
p1516
aV       Cayenne
p1517
aV       St Laurent Du Maroni
p1518
aV       Guyana
p1519
aV       French Guiana
p1520
aV       Kourou
p1521
atp1522
sV\u8428\u5c14\u74e6\u591a
p1523
(Vhttp://tukeq.com/place/el-salvador/explore/
p1524
(lp1525
V       Santa Ana
p1526
aV       San Salvador
p1527
aV       San Miguel
p1528
aV       Perquin
p1529
aV       Suchitoto
p1530
aV       Juayua
p1531
aV       La Libertad
p1532
aV       Santa Ana
p1533
aV       San Salvador
p1534
aV       San Miguel
p1535
aV       Perquin
p1536
aV       Suchitoto
p1537
aV       Juayua
p1538
aV       La Libertad
p1539
atp1540
sV\u58a8\u897f\u54e5
p1541
(Vhttp://tukeq.com/place/mexico/explore/
p1542
(lp1543
V       Isla Mujeres
p1544
aV       Mexico City
p1545
aV       San Jose Del Cabo
p1546
aV       Veracruz
p1547
aV       Oaxaca
p1548
aV       San Cristobal De Las Casas
p1549
aV       Guanajuato
p1550
aV       Cuetzalan
p1551
aV       Playa Del Carmen
p1552
aV       Tijuana
p1553
aV       Puerto Vallarta
p1554
aV       Malinalco
p1555
aV       Patzcuaro
p1556
aV       Loreto
p1557
aV       Palenque
p1558
aV       Isla Mujeres
p1559
aV       Mexico City
p1560
aV       San Jose Del Cabo
p1561
aV       Veracruz
p1562
aV       Oaxaca
p1563
aV       San Cristobal De Las Casas
p1564
aV       Guanajuato
p1565
aV       Cuetzalan
p1566
aV       Playa Del Carmen
p1567
aV       Tijuana
p1568
aV       Puerto Vallarta
p1569
aV       Malinalco
p1570
aV       Patzcuaro
p1571
aV       Loreto
p1572
aV       Palenque
p1573
aV       Isla Holbox
p1574
aV       Mazatlan
p1575
aV       Acapulco
p1576
aV       Monterrey
p1577
aV       Ticul
p1578
aV       Yucatan State
p1579
aV       Tulum
p1580
aV       Queretaro
p1581
aV       Puerto Escondido
p1582
aV       San Miguel De Allende
p1583
aV       Cabo San Lucas
p1584
aV       Isla Cozumel
p1585
aV       Morelia
p1586
aV       Cuernavaca
p1587
aV       Zihuatanejo
p1588
aV       Ciudad Valles And Around
p1589
aV       Xalapa
p1590
aV       San Luis Potosi
p1591
aV       Cancun
p1592
aV       Ensenada
p1593
aV       Xcalak
p1594
aV       Puerto Morelos
p1595
aV       Taxco
p1596
aV       Aguascalientes
p1597
aV       San Carlos
p1598
aV       Edzna
p1599
aV       Merida
p1600
aV       Chihuahua
p1601
aV       Bahias De Huatulco
p1602
aV       Valladolid
p1603
aV       Puebla
p1604
aV       Quintana Roo
p1605
aV       Tepic
p1606
aV       Hermosillo
p1607
aV       Valle De Bravo
p1608
aV       Ciudad Juarez
p1609
aV       Western Central Highlands
p1610
aV       Campeche
p1611
aV       Cholula
p1612
aV       Playas De Rosarito
p1613
aV       Real De Catorce
p1614
aV       Laguna Bacalar
p1615
aV       Reynosa
p1616
aV       Toluca
p1617
aV       Manzanillo
p1618
aV       Leon
p1619
aV       Zacatecas
p1620
aV       Villahermosa
p1621
aV       Chetumal
p1622
aV       Tuxtla Gutierrez
p1623
aV       Durango
p1624
aV       Los Mochis
p1625
aV       Felipe Carrillo Puerto
p1626
aV       Guaymas
p1627
aV       Sayulita
p1628
aV       Creel
p1629
aV       Guadalajara
p1630
aV       Orizaba
p1631
aV       Baja California
p1632
aV       Ciudad Victoria
p1633
aV       Ixtapa
p1634
aV       Tizimin
p1635
aV       Jerez
p1636
aV       Barra De Navidad
p1637
aV       Barra De La Cruz
p1638
aV       San Andres Tuxtla
p1639
aV       Saltillo
p1640
aV       Pie De La Cuesta
p1641
aV       La Paz
p1642
aV       Tequisquiapan
p1643
aV       Catemaco
p1644
aV       Cuatro Cienegas
p1645
aV       San Blas
p1646
aV       Tapachula
p1647
aV       Uruapan
p1648
aV       Guerrero Negro
p1649
aV       Ruta Puuc
p1650
aV       Dolores Hidalgo
p1651
aV       Mexicali
p1652
aV       Northeast Mexico
p1653
aV       Coba
p1654
aV       Nuevo Laredo
p1655
aV       Colima
p1656
aV       Tlacotalpan
p1657
aV       Chichen Itza
p1658
aV       Chapala
p1659
aV       Celestun
p1660
aV       Cordoba
p1661
aV       Mulege
p1662
aV       Todos Santos
p1663
aV       Inland Michoacan
p1664
aV       Mazunte
p1665
aV       Teotihuacan
p1666
aV       Puerto Angel
p1667
aV       San Patricio Melaque
p1668
aV       Comitan
p1669
aV       Acayucan
p1670
aV       Frontera Corozal
p1671
aV       Tlaxcala
p1672
aV       Santiago Tuxtla
p1673
aV       Yucatan Peninsula
p1674
aV       Ek Balam
p1675
aV       Matamoros
p1676
aV       Guanajuato State
p1677
aV       Santa Rosalia
p1678
aV       Parras
p1679
aV       Torreon
p1680
aV       Fortin De Las Flores
p1681
aV       Troncones And Majahua
p1682
aV       Ocosingo
p1683
aV       San Agustinillo
p1684
aV       Ajijic
p1685
aV       Punta Allen
p1686
aV       Central Pacific Coast
p1687
aV       Chiapas
p1688
aV       Alamos
p1689
aV       Cuautla
p1690
aV       Progreso
p1691
aV       Northern Central Highlands
p1692
aV       Xpujil
p1693
aV       Zipolite
p1694
aV       Puerto Penasco
p1695
aV       Tuxpan
p1696
aV       Nogales
p1697
aV       Queretaro State
p1698
aV       El Fuerte
p1699
aV       Agua Azul And Misol Ha
p1700
aV       Nuevo Casas Grandes And Casas Grandes
p1701
aV       Batopilas
p1702
aV       Chiapa De Corzo
p1703
aV       Lazaro Cardenas
p1704
aV       Papantla
p1705
aV       Izamal
p1706
aV       Lacanja Chansayab
p1707
aV       Cuyutlan And El Paraiso
p1708
aV       Tepoztlan
p1709
aV       Piedras Negras
p1710
aV       San Ignacio
p1711
aV       Inland Colima State
p1712
aV       Teotitlan Del Valle
p1713
aV       Bahia De Kino
p1714
aV       Tulum To Punta Allen
p1715
aV       Tehuacan
p1716
aV       Central North Mexico
p1717
aV       Cuauhtemoc
p1718
aV       Paraiso And Around
p1719
aV       Xilitla
p1720
aV       Mahahual
p1721
aV       Central Veracruz State
p1722
aV       Hidalgo Del Parral
p1723
aV       Juchitan
p1724
aV       Tonina
p1725
aV       Reserva De La Biosfera El Cielo
p1726
aV       Barranca Del Cobre
p1727
aV       Lagos De Montebello
p1728
aV       Tenosique
p1729
aV       Valles Centrales
p1730
aV       Nuevo Leon
p1731
aV       Tula
p1732
aV       La Quemada
p1733
aV       Tepotzotlan
p1734
aV       Mexcaltitan
p1735
aV       Oaxaca State
p1736
aV       Calakmul
p1737
aV       Teapa
p1738
aV       Madera
p1739
aV       Xochicalco
p1740
aV       Uxmal
p1741
aV       Tehuantepec
p1742
aV       Ruinas De Mayapan
p1743
aV       Parque Nacional Grutas De Cacahuamilpa
p1744
aV       Pachuca
p1745
aV       El Tajin
p1746
aV       Parque Nacional Lagunas De Chacahua
p1747
aV       Campeche State
p1748
aV       Parque Nacional Isla Contoy
p1749
aV       Mitla
p1750
aV       Corredor Arqueologico
p1751
aV       Southeast Veracruz State
p1752
aV       Monte Alban
p1753
aV       Comalcalco
p1754
aV       East of Mexico City
p1755
aV       Yaxchilan
p1756
aV       Parque Nacional El Chico
p1757
aV       Tabasco
p1758
aV       Bonampak
p1759
aV       Northern Veracruz State
p1760
aV       Las Guacamayas
p1761
aV       Cacaxtla And Xochitecatl
p1762
aV       Rio Lagartos
p1763
aV       Northwest Mexico
p1764
atp1765
sV\u5723\u5c24\u65af\u7279\u6b47\u65af\u5c9b
p1766
(Vhttp://tukeq.com/place/sint-eustatius/explore/
p1767
(lp1768
tp1769
s.