(dp0
V\u5173\u5c9b
p1
(Vhttp://tukeq.com/place/guam/explore/
p2
(lp3
tp4
sV\u5bc6\u514b\u7f57\u5c3c\u897f\u4e9a\u8054\u90a6
p5
(Vhttp://tukeq.com/place/federated-states-of-micronesia/explore/
p6
(lp7
V       Pohnpei
p8
aV       Yap
p9
aV       Pohnpei
p10
aV       Yap
p11
atp12
sV\u74e6\u5229\u65af\u7fa4\u5c9b\u548c\u5bcc\u56fe\u7eb3\u7fa4\u5c9b
p13
(Vhttp://tukeq.com/place/wallis-and-futuna/explore/
p14
(lp15
tp16
sV\u6c64\u52a0
p17
(Vhttp://tukeq.com/place/tonga/explore/
p18
(lp19
tp20
sV\u57fa\u91cc\u5df4\u65af
p21
(Vhttp://tukeq.com/place/kiribati/explore/
p22
(lp23
tp24
sV\u6fb3\u5927\u5229\u4e9a
p25
(Vhttp://tukeq.com/place/australia/explore/
p26
(lp27
V       \u6089\u5c3c
p28
aV       \u58a8\u5c14\u672c
p29
aV       \u5e03\u91cc\u65af\u73ed
p30
aV       \u73c0\u65af
p31
aV       Adelaide
p32
aV       \u73ed\u8fbe\u4f2f\u683c
p33
aV       Byron Bay
p34
aV       Castlemaine
p35
aV       Canberra
p36
aV       Gold Coast
p37
aV       Newcastle
p38
aV       Hervey Bay
p39
aV       Kangaroo Island
p40
aV       Kalbarri
p41
aV       Launceston
p42
aV       \u6089\u5c3c
p43
aV       \u58a8\u5c14\u672c
p44
aV       \u5e03\u91cc\u65af\u73ed
p45
aV       \u73c0\u65af
p46
aV       Adelaide
p47
aV       \u73ed\u8fbe\u4f2f\u683c
p48
aV       Byron Bay
p49
aV       Castlemaine
p50
aV       Canberra
p51
aV       Gold Coast
p52
aV       Newcastle
p53
aV       Hervey Bay
p54
aV       Kangaroo Island
p55
aV       Kalbarri
p56
aV       Launceston
p57
aV       Geelong
p58
aV       Coffs Harbour
p59
aV       Griffith
p60
aV       Mission Beach
p61
aV       Katoomba
p62
aV       Albany
p63
aV       Port Douglas
p64
aV       Coober Pedy
p65
aV       Rottnest Island
p66
aV       Wollongong
p67
aV       Echuca
p68
aV       Katherine
p69
aV       Magnetic Island
p70
aV       Beechworth
p71
aV       Port Augusta
p72
aV       Victoria
p73
aV       Devonport
p74
aV       Victor Harbor
p75
aV       Dubbo
p76
aV       Queensland
p77
aV       The Murray River
p78
aV       South Gippsland
p79
aV       South Australia
p80
aV       Sunshine Coast
p81
aV       The Northeast
p82
aV       The West
p83
aV       Townsville
p84
aV       Orange
p85
aV       Port Macquarie
p86
aV       Blackheath Area
p87
aV       East Coast
p88
aV       Coral Coast And Pilbara
p89
aV       The Kimberley
p90
aV       South Coast
p91
aV       Tasmania
p92
aV       The Northwest
p93
aV       New South Wales
p94
aV       Blue Mountains
p95
aV       Mornington Peninsula
p96
aV       Goldfields
p97
aV       Darling Downs
p98
aV       Phillip Island
p99
aV       Surfers Paradise And Broadbeach
p100
aV       Franklin Gordon Wild Rivers National Park
p101
aV       Maryborough
p102
aV       Outback
p103
aV       Bourke
p104
aV       Fremantle
p105
aV       Cooktown
p106
aV       Albury Wodonga
p107
aV       Mansfield
p108
aV       Central West
p109
aV       Lord Howe Island
p110
aV       Armidale
p111
aV       Noosa
p112
aV       Nimbin
p113
aV       Fraser Island
p114
aV       Warrnambool
p115
aV       Wangaratta
p116
aV       North Stradbroke Island
p117
aV       Mudgee
p118
aV       Geraldton
p119
aV       Broken Hill
p120
aV       Bendigo
p121
aV       Maroochydore
p122
aV       Port Elliot
p123
aV       Cardwell
p124
aV       Broome
p125
aV       Falls Creek
p126
aV       New England
p127
aV       Hobart
p128
aV       Charters Towers
p129
aV       Kununurra
p130
aV       Airlie Beach
p131
aV       Ballina
p132
aV       Norfolk Island
p133
aV       Mackay
p134
aV       Darwin
p135
aV       Mildura
p136
aV       Mt Arapiles State Park
p137
aV       Carnarvon
p138
aV       Mt Buller
p139
aV       Port Fairy
p140
aV       Grampians National Park Gariwerd
p141
aV       Bruny Island
p142
aV       Denmark
p143
aV       North Coast
p144
aV       The High Country
p145
aV       Bright
p146
aV       Cowra
p147
aV       Tennant Creek
p148
aV       Tamworth
p149
aV       Mossman
p150
aV       Kosciuszko National Park
p151
aV       Cape Tribulation
p152
aV       Richmond
p153
aV       Mallacoota
p154
aV       The Midlands And Wheatbelt
p155
aV       Omeo
p156
aV       Mt Hotham
p157
aV       Bathurst
p158
aV       Wagga Wagga
p159
aV       Hay
p160
aV       Adelaide Hills
p161
aV       Yulara Ayers Rock Resort
p162
aV       Katherine To Alice
p163
aV       Australian Capital Territory
p164
aV       Kalgoorlie Boulder
p165
aV       Rutherglen
p166
aV       Western Australia
p167
aV       Port Hedland
p168
aV       Mt Isa
p169
aV       Karijini National Park
p170
aV       Southern Forests
p171
aV       Uralla
p172
aV       Southwest And The Murray
p173
aV       Moreton Island
p174
aV       Exmouth
p175
aV       Port Campbell National Park
p176
aV       Mataranka
p177
aV       Kakadu National Park
p178
aV       The Dandenongs
p179
aV       Dampier
p180
aV       Coles Bay And Freycinet National Park
p181
aV       Nambucca Heads
p182
aV       Shepparton
p183
aV       Lismore
p184
aV       Maldon
p185
aV       Capricorn Hinterland
p186
aV       Swansea
p187
aV       Denham
p188
aV       Great Ocean Road
p189
aV       Rockhampton
p190
aV       Moreton Bay
p191
aV       Barrier Highway
p192
aV       Coral Bay
p193
aV       Halls Gap
p194
aV       Murwillumbah
p195
aV       Derby
p196
aV       Snowy Mountains
p197
aV       Mt Beauty
p198
aV       Horsham
p199
aV       Portland
p200
aV       The Channel Country
p201
aV       Whitsunday Islands
p202
aV       Deniliquin
p203
aV       Far North Queensland
p204
aV       Swan Hill
p205
aV       Monkey Mia
p206
aV       Yeppoon
p207
aV       Parramatta
p208
aV       Great Keppel Island
p209
aV       Central West Coast
p210
aV       Queenstown
p211
aV       Midlands
p212
aV       Merimbula
p213
aV       King Island
p214
aV       Cooma
p215
aV       Mt Field National Park
p216
aV       Tasman Peninsula
p217
aV       Porongurup National Park
p218
aV       Eastern Arnhem Land
p219
aV       Ku Ring Gai Chase National Park
p220
aV       Sorrento
p221
aV       Cape York Peninsula
p222
aV       Stawell
p223
aV       The Savannah Way
p224
aV       Harrietville
p225
aV       Goolwa
p226
aV       Wilsons Promontory National Park
p227
aV       Flinders Ranges
p228
aV       Cradle Mountain Lake St Clair National Park
p229
aV       Thursday Island And Torres Strait Islands
p230
aV       Longreach
p231
aV       Cervantes And Pinnacles Desert
p232
aV       Gippsland
p233
aV       Paluma Range National Park
p234
aV       Flinders Island
p235
aV       Fleurieu Peninsula
p236
aV       Wellington
p237
aV       Southern Outback
p238
aV       Whitsunday Coast
p239
aV       Border Ranges National Park
p240
aV       Barossa Valley
p241
aV       Eyre Peninsula And West Coast
p242
aV       Innes National Park
p243
aV       Stuart Highway To Litchfield National Park
p244
aV       Stirling Range National Park
p245
aV       Gulf Savannah
p246
aV       Shark Bay
p247
aV       Mornington Peninsula National Park
p248
aV       Wodonga
p249
aV       Royal National Park
p250
aV       Atherton Tablelands
p251
aV       Flinders Chase National Park
p252
aV       Great Northern Highway
p253
aV       Ben Lomond National Park
p254
aV       Coorong National Park
p255
aV       Rainbow Beach
p256
aV       Southwest National Park
p257
aV       Hartz Mountains National Park
p258
aV       Millstream Chichester National Park
p259
aV       South of Alice Springs
p260
aV       North of Perth
p261
aV       Frankland Islands National Park
p262
aV       Naracoorte Caves National Park
p263
aV       Walls of Jerusalem National Park
p264
aV       Sturt National Park
p265
aV       The Southeast
p266
aV       Triabunna And Maria Island National Park
p267
aV       Cape Range National Park
p268
aV       Mt William National Park
p269
aV       Undara Volcanic National Park
p270
aV       Northern Territory
p271
aV       Uluru Kata Tjuta National Park
p272
aV       Kuranda
p273
aV       Alice Springs
p274
aV       \u51ef\u6069\u65af
p275
atp276
sV\u5317\u9a6c\u91cc\u4e9a\u7eb3\u7fa4\u5c9b
p277
(Vhttp://tukeq.com/place/northern-mariana-islands/explore/
p278
(lp279
tp280
sV\u56fe\u74e6\u5362
p281
(Vhttp://tukeq.com/place/tuvalu/explore/
p282
(lp283
tp284
sV\u7ebd\u57c3
p285
(Vhttp://tukeq.com/place/niue/explore/
p286
(lp287
tp288
sV\u6240\u7f57\u95e8\u7fa4\u5c9b
p289
(Vhttp://tukeq.com/place/solomon-islands/explore/
p290
(lp291
V       Honiara
p292
aV       Gizo
p293
aV       Islands Around Ghizo
p294
aV       Malaita Island
p295
aV       Marovo Lagoon
p296
aV       Savo
p297
aV       Rennell
p298
aV       Honiara
p299
aV       Gizo
p300
aV       Islands Around Ghizo
p301
aV       Malaita Island
p302
aV       Marovo Lagoon
p303
aV       Savo
p304
aV       Rennell
p305
atp306
sV\u62c9\u7f57\u6c64\u52a0\u548c\u5e93\u514b\u7fa4\u5c9b
p307
(Vhttp://tukeq.com/place/rarotonga-and-the-cook-islands/explore/
p308
(lp309
V       Rarotonga
p310
aV       Atiu
p311
aV       Aitutaki
p312
aV       Rarotonga
p313
aV       Atiu
p314
aV       Aitutaki
p315
atp316
sV\u6258\u514b\u52b3
p317
(Vhttp://tukeq.com/place/tokelau/explore/
p318
(lp319
tp320
sV\u7f8e\u5c5e\u8428\u6469\u4e9a
p321
(Vhttp://tukeq.com/place/american-samoa/explore/
p322
(lp323
tp324
sV\u9a6c\u7ecd\u5c14\u7fa4\u5c9b
p325
(Vhttp://tukeq.com/place/marshall-islands/explore/
p326
(lp327
tp328
sV\u7459\u9c81
p329
(Vhttp://tukeq.com/place/nauru/explore/
p330
(lp331
tp332
sV\u5e15\u52b3
p333
(Vhttp://tukeq.com/place/palau/explore/
p334
(lp335
V       Koror State
p336
aV       Koror State
p337
atp338
sV\u74e6\u52aa\u963f\u56fe
p339
(Vhttp://tukeq.com/place/vanuatu/explore/
p340
(lp341
V       Port Vila
p342
aV       Luganville
p343
aV       Port Vila
p344
aV       Luganville
p345
atp346
sV\u5df4\u5e03\u4e9a\u65b0\u51e0\u5185\u4e9a
p347
(Vhttp://tukeq.com/place/papua-new-guinea/explore/
p348
(lp349
V       Samarai Island
p350
aV       Port Moresby
p351
aV       Kavieng
p352
aV       Goroka
p353
aV       Telefomin
p354
aV       Lae
p355
aV       Buka
p356
aV       Kokopo
p357
aV       Rabaul
p358
aV       Wewak
p359
aV       Mt Hagen
p360
aV       Manus And Los Negros Islands
p361
aV       Kiriwina Island
p362
aV       Tabubil
p363
aV       Alotau
p364
aV       Samarai Island
p365
aV       Port Moresby
p366
aV       Kavieng
p367
aV       Goroka
p368
aV       Telefomin
p369
aV       Lae
p370
aV       Buka
p371
aV       Kokopo
p372
aV       Rabaul
p373
aV       Wewak
p374
aV       Mt Hagen
p375
aV       Manus And Los Negros Islands
p376
aV       Kiriwina Island
p377
aV       Tabubil
p378
aV       Alotau
p379
aV       Kundiawa
p380
aV       Lake Kutubu
p381
aV       Kokoda
p382
aV       Madang
p383
aV       Wabag
p384
aV       Bougainville
p385
aV       East Coast
p386
aV       West New Britain Province
p387
aV       Malolo To Hansa Bay And On To Watam
p388
aV       Wau And Bulolo
p389
aV       Tufi
p390
aV       Menyamya And Aseki
p391
aV       Sogeri Road
p392
aV       Daru
p393
aV       Dentrecasteaux Islands
p394
aV       Kerema
p395
aV       Yule Island
p396
aV       Mt Wilhelm
p397
aV       Mendi
p398
aV       Vanimo
p399
aV       Tari
p400
aV       Popondetta
p401
aV       Finschhafen Area
p402
aV       Karkar Island
p403
aV       Kiunga
p404
aV       Maprik Area
p405
aV       Duke of York Group
p406
atp407
sV\u5854\u5e0c\u63d0\u5c9b\u548c\u6cd5\u5c5e\u6ce2\u5229\u5c3c\u897f\u4e9a
p408
(Vhttp://tukeq.com/place/tahiti-and-french-polynesia/explore/
p409
(lp410
V       Tahiti
p411
aV       Moorea
p412
aV       Tikehau
p413
aV       Bora Bora
p414
aV       Rangiroa
p415
aV       Huahine
p416
aV       The Gambier Archipelago
p417
aV       Manihi
p418
aV       Nuku Hiva
p419
aV       Rurutu
p420
aV       Ua Huka
p421
aV       Maupiti
p422
aV       Hiva Oa
p423
aV       Tahiti
p424
aV       Moorea
p425
aV       Tikehau
p426
aV       Bora Bora
p427
aV       Rangiroa
p428
aV       Huahine
p429
aV       The Gambier Archipelago
p430
aV       Manihi
p431
aV       Nuku Hiva
p432
aV       Rurutu
p433
aV       Ua Huka
p434
aV       Maupiti
p435
aV       Hiva Oa
p436
atp437
sV\u65b0\u897f\u5170
p438
(Vhttp://tukeq.com/place/new-zealand/explore/
p439
(lp440
V       \u5965\u514b\u5170
p441
aV       \u60e0\u7075\u987f
p442
aV       \u7687\u540e\u9547
p443
aV       \u5965\u5854\u6208\u534a\u5c9b
p444
aV       Tauranga
p445
aV       \u9676\u6ce2
p446
aV       Kauri Coast
p447
aV       \u57fa\u7763\u57ce
p448
aV       \u51ef\u5e93\u62c9
p449
aV       \u6000\u5e0c
p450
aV       Great Barrier Island
p451
aV       Bay of Islands
p452
aV       Punakaiki And Paparoa National Park
p453
aV       Murchison
p454
aV       Blenheim
p455
aV       \u5965\u514b\u5170
p456
aV       \u60e0\u7075\u987f
p457
aV       \u7687\u540e\u9547
p458
aV       \u5965\u5854\u6208\u534a\u5c9b
p459
aV       Tauranga
p460
aV       \u9676\u6ce2
p461
aV       Kauri Coast
p462
aV       \u57fa\u7763\u57ce
p463
aV       \u51ef\u5e93\u62c9
p464
aV       \u6000\u5e0c
p465
aV       Great Barrier Island
p466
aV       Bay of Islands
p467
aV       Punakaiki And Paparoa National Park
p468
aV       Murchison
p469
aV       Blenheim
p470
aV       Whitianga
p471
aV       Cromwell
p472
aV       Napier
p473
aV       Nelson
p474
aV       Hastings And Around
p475
aV       Greymouth
p476
aV       Havelock
p477
aV       New Plymouth
p478
aV       Queen Charlotte Track
p479
aV       Te Urewera National Park
p480
aV       Lake Taupo Region
p481
aV       Clyde
p482
aV       Tairua
p483
aV       Whangamata
p484
aV       Matakohe
p485
aV       Dargaville
p486
aV       Gisborne
p487
aV       Dunedin
p488
aV       Marlborough Sounds
p489
aV       Reefton
p490
aV       Hahei
p491
aV       Russell
p492
aV       Whangarei
p493
aV       Hamilton
p494
aV       Opononi And Omapere
p495
aV       Raglan
p496
aV       Kerikeri
p497
aV       Paihia And Waitangi
p498
aV       Thames
p499
aV       Coromandel Town
p500
aV       Auckland Region
p501
aV       Warkworth
p502
aV       Franz Josef Glacier
p503
aV       Waiheke Island
p504
aV       Cape Reinga And Ninety Mile Beach
p505
aV       Orewa
p506
aV       Karamea
p507
aV       Picton
p508
aV       Rotorua And The Bay of Plenty
p509
aV       Waikato
p510
aV       Te Anau
p511
aV       Tutukaka Coast And The Poor Knights Islands
p512
aV       Timaru
p513
aV       Motueka
p514
aV       Pohara
p515
aV       Taranaki
p516
aV       Fox Glacier
p517
aV       Tongariro And Around
p518
aV       Oamaru
p519
aV       Coromandel Region
p520
aV       Akaroa And The Banks Peninsula
p521
aV       Hanmer Springs
p522
aV       Stewart Island
p523
aV       Methven
p524
aV       Ohakune
p525
aV       Whakatane
p526
aV       Palmerston North
p527
aV       Wanaka
p528
aV       Central Hawkes Bay
p529
aV       Turangi
p530
aV       Nelson Lakes National Park
p531
aV       Mt Maunganui
p532
aV       Whanganui National Park
p533
aV       Takaka
p534
aV       Kahurangi National Park
p535
aV       Haast
p536
aV       Hokitika
p537
aV       Westport
p538
aV       Abel Tasman National Park
p539
aV       Queenstown Region
p540
aV       Waitomo Caves
p541
aV       Invercargill
p542
aV       Aoraki Mt Cook National Park
p543
aV       Opotiki
p544
aV       Te Kuiti
p545
aV       The East Coast
p546
aV       Alexandra
p547
aV       Wellington Region
p548
aV       Matakana And Around
p549
aV       Nelson Region
p550
aV       Central Canterbury
p551
aV       Doubtless Bay
p552
aV       Rawene
p553
aV       Arrowtown
p554
aV       Omarama
p555
aV       Lake Tekapo
p556
aV       Bluff
p557
aV       Waipu And Bream Bay
p558
aV       Te Awamutu
p559
aV       Wanganui Region
p560
aV       Waitaki Valley
p561
aV       Taumarunui
p562
aV       Wairoa
p563
aV       Otorohanga
p564
aV       Westport To Greymouth
p565
aV       Christchurch And Canterbury
p566
aV       Owhango
p567
aV       Te Aroha
p568
aV       Matamata
p569
aV       East Cape
p570
aV       Kawhia
p571
aV       Eastern Bay of Plenty
p572
aV       Cambridge
p573
aV       The King Country
p574
aV       Lyttelton
p575
aV       Arthurs Pass
p576
aV       Collingwood
p577
aV       Northland And The Bay of Islands
p578
aV       Twizel
p579
aV       Fiordland
p580
aV       Milford Sound
p581
aV       Marahau
p582
aV       Manapouri
p583
aV       Hokitika To Westland Tai Poutini National Park
p584
aV       Grey Valley
p585
aV       Glenorchy
p586
aV       Kaiteriteri
p587
aV       Whangarei District
p588
aV       North Canterbury
p589
aV       The West Coast
p590
aV       Golden Bay
p591
aV       Haast Region
p592
aV       South Canterbury
p593
aV       Taupo And The Central Plateau
p594
aV       \u6c64\u52a0\u91cc\u7f57\u56fd\u5bb6\u516c\u56ed
p595
aV       Rotorua
p596
atp597
sV\u6590\u6d4e
p598
(Vhttp://tukeq.com/place/fiji/explore/
p599
(lp600
V       Suva
p601
aV       Nadi
p602
aV       Savusavu
p603
aV       Kadavu
p604
aV       Suva
p605
aV       Nadi
p606
aV       Savusavu
p607
aV       Kadavu
p608
atp609
sV\u8428\u6469\u4e9a
p610
(Vhttp://tukeq.com/place/samoa/explore/
p611
(lp612
tp613
sV\u65b0\u5580\u91cc\u591a\u5c3c\u4e9a
p614
(Vhttp://tukeq.com/place/new-caledonia/explore/
p615
(lp616
V       Noumea
p617
aV       Noumea
p618
atp619
s.